target datalayout = "e-m:e-p270:32:32-p271:32:32-p272:64:64-i64:64-i128:128-f80:128-n8:16:32:64-S128"
target triple = "x86_64-pc-linux-gnu"

%struct.Ssw_Man_t_ = type { ptr, i32, ptr, ptr, ptr, ptr, i32, ptr, ptr, ptr, i32, i32, i32, i32, i32, i32, i32, i32, i32, i32, i32, ptr, i32, ptr, i32, i32, i32, i32, ptr, ptr, ptr, i32, ptr, i32, i32, ptr, ptr, ptr, i32, ptr, i32, i32, i32, i32, i32, i32, i32, i32, i32, i32, i32, i32, i32, i32, i32, i32, i32, i32, i32, i32, i32, i32, i64, i64, i64, i64, i64, i64, i64, i64, i64, i64 }
%struct.Ssw_Pars_t_ = type { i32, i32, i32, i32, i32, i32, i32, i32, i32, i32, i32, i32, i32, i32, i32, i32, i32, i32, i32, i32, i32, i32, i32, i32, i32, i32, i32, i32, i32, i32, i32, i32, i32, i32, i32, i32, i32, i32, i32, i32, ptr, ptr }
%struct.Ssw_Sat_t_ = type { ptr, i32, ptr, i32, ptr, ptr, ptr, i32 }
%struct.Aig_Obj_t_ = type { %union.anon, ptr, ptr, i64, i32, i32, %union.anon.0 }
%union.anon = type { ptr }
%union.anon.0 = type { ptr }

; Function Attrs: nounwind uwtable
define internal i32 @Aig_IsComplement(ptr noundef %0) #0 {
  %2 = alloca ptr, align 8
  store ptr %0, ptr %2, align 8
  %3 = load ptr, ptr %2, align 8
  %4 = ptrtoint ptr %3 to i64
  %5 = and i64 %4, 1
  %6 = trunc i64 %5 to i32
  ret i32 %6
}

; Function Attrs: nounwind uwtable
define internal ptr @Aig_Regular(ptr noundef %0) #0 {
  %2 = alloca ptr, align 8
  store ptr %0, ptr %2, align 8
  %3 = load ptr, ptr %2, align 8
  %4 = ptrtoint ptr %3 to i64
  %5 = and i64 %4, -2
  %6 = inttoptr i64 %5 to ptr
  ret ptr %6
}

; Function Attrs: nounwind uwtable
define internal i32 @lit_neg(i32 noundef %0) #0 {
  %2 = alloca i32, align 4
  store i32 %0, ptr %2, align 4
  %3 = load i32, ptr %2, align 4
  %4 = xor i32 %3, 1
  ret i32 %4
}

; Function Attrs: nounwind uwtable
define internal i32 @toLitCond(i32 noundef %0, i32 noundef %1) #0 {
  %3 = alloca i32, align 4
  %4 = alloca i32, align 4
  store i32 %0, ptr %3, align 4
  store i32 %1, ptr %4, align 4
  %5 = load i32, ptr %3, align 4
  %6 = load i32, ptr %3, align 4
  %7 = add nsw i32 %5, %6
  %8 = load i32, ptr %4, align 4
  %9 = icmp ne i32 %8, 0
  %10 = zext i1 %9 to i32
  %11 = add nsw i32 %7, %10
  ret i32 %11
}

; Function Attrs: nounwind uwtable
define internal i32 @Aig_ObjFaninC0(ptr noundef %0) #0 {
  %2 = alloca ptr, align 8
  store ptr %0, ptr %2, align 8
  %3 = load ptr, ptr %2, align 8
  %4 = getelementptr inbounds %struct.Aig_Obj_t_, ptr %3, i32 0, i32 1
  %5 = load ptr, ptr %4, align 8
  %6 = call i32 @Aig_IsComplement(ptr noundef %5)
  ret i32 %6
}

; Function Attrs: nounwind uwtable
define internal ptr @Aig_ObjFanin0(ptr noundef %0) #0 {
  %2 = alloca ptr, align 8
  store ptr %0, ptr %2, align 8
  %3 = load ptr, ptr %2, align 8
  %4 = getelementptr inbounds %struct.Aig_Obj_t_, ptr %3, i32 0, i32 1
  %5 = load ptr, ptr %4, align 8
  %6 = call ptr @Aig_Regular(ptr noundef %5)
  ret ptr %6
}

; Function Attrs: nounwind uwtable
define i32 @Ssw_NodeIsConstrained(ptr noundef %0, ptr noundef %1) #0 {
  %3 = alloca ptr, align 8
  %4 = alloca ptr, align 8
  %5 = alloca i32, align 4
  %6 = alloca i32, align 4
  store ptr %0, ptr %3, align 8
  store ptr %1, ptr %4, align 8
  %7 = load ptr, ptr %3, align 8
  %8 = getelementptr inbounds %struct.Ssw_Man_t_, ptr %7, i32 0, i32 8
  %9 = load ptr, ptr %8, align 8
  %10 = load ptr, ptr %4, align 8
  %11 = call ptr @Aig_ObjFanin0(ptr noundef %10)
  call void @Ssw_CnfNodeAddToSolver(ptr noundef %9, ptr noundef %11)
  %12 = load ptr, ptr %3, align 8
  %13 = getelementptr inbounds %struct.Ssw_Man_t_, ptr %12, i32 0, i32 8
  %14 = load ptr, ptr %13, align 8
  %15 = load ptr, ptr %4, align 8
  %16 = call ptr @Aig_ObjFanin0(ptr noundef %15)
  %17 = call i32 @Ssw_ObjSatNum(ptr noundef %14, ptr noundef %16)
  %18 = load ptr, ptr %4, align 8
  %19 = call i32 @Aig_ObjFaninC0(ptr noundef %18)
  %20 = icmp ne i32 %19, 0
  %21 = xor i1 %20, true
  %22 = zext i1 %21 to i32
  %23 = call i32 @toLitCond(i32 noundef %17, i32 noundef %22)
  store i32 %23, ptr %6, align 4
  %24 = load ptr, ptr %3, align 8
  %25 = getelementptr inbounds %struct.Ssw_Man_t_, ptr %24, i32 0, i32 0
  %26 = load ptr, ptr %25, align 8
  %27 = getelementptr inbounds %struct.Ssw_Pars_t_, ptr %26, i32 0, i32 17
  %28 = load i32, ptr %27, align 4
  %29 = icmp ne i32 %28, 0
  br i1 %29, label %30, label %43

30:                                               ; preds = %2
  %31 = load ptr, ptr %4, align 8
  %32 = call ptr @Aig_ObjFanin0(ptr noundef %31)
  %33 = getelementptr inbounds %struct.Aig_Obj_t_, ptr %32, i32 0, i32 3
  %34 = load i64, ptr %33, align 8
  %35 = lshr i64 %34, 3
  %36 = and i64 %35, 1
  %37 = trunc i64 %36 to i32
  %38 = icmp ne i32 %37, 0
  br i1 %38, label %39, label %42

39:                                               ; preds = %30
  %40 = load i32, ptr %6, align 4
  %41 = call i32 @lit_neg(i32 noundef %40)
  store i32 %41, ptr %6, align 4
  br label %42

42:                                               ; preds = %39, %30
  br label %43

43:                                               ; preds = %42, %2
  %44 = load ptr, ptr %3, align 8
  %45 = getelementptr inbounds %struct.Ssw_Man_t_, ptr %44, i32 0, i32 8
  %46 = load ptr, ptr %45, align 8
  %47 = getelementptr inbounds %struct.Ssw_Sat_t_, ptr %46, i32 0, i32 2
  %48 = load ptr, ptr %47, align 8
  %49 = getelementptr inbounds i32, ptr %6, i64 1
  %50 = call i32 @sat_solver_addclause(ptr noundef %48, ptr noundef %6, ptr noundef %49)
  store i32 %50, ptr %5, align 4
  ret i32 1
}