; Function Attrs: nounwind uwtable
define noundef i32 @Ssw_NodeIsConstrained(ptr noundef readonly captures(none) %0, ptr noundef readonly captures(none) %1) local_unnamed_addr #0 {
  %3 = alloca i32, align 4
  %4 = getelementptr inbounds nuw i8, ptr %0, i64 64
  %5 = load ptr, ptr %4, align 8
  %6 = getelementptr i8, ptr %1, i64 8
  %.val10 = load ptr, ptr %6, align 8
  %7 = ptrtoint ptr %.val10 to i64
  %8 = and i64 %7, -2
  %9 = inttoptr i64 %8 to ptr
  tail call void @Ssw_CnfNodeAddToSolver(ptr noundef %5, ptr noundef %9) #6
  %10 = load ptr, ptr %4, align 8
  %.val11 = load ptr, ptr %6, align 8
  %11 = ptrtoint ptr %.val11 to i64
  %12 = and i64 %11, -2
  %13 = inttoptr i64 %12 to ptr
  %14 = getelementptr i8, ptr %10, i64 32
  %.val = load ptr, ptr %14, align 8
  %15 = getelementptr i8, ptr %13, i64 36
  %.val9 = load i32, ptr %15, align 4
  %16 = tail call fastcc i32 @Ssw_ObjSatNum(ptr %.val, i32 %.val9)
  %.val13 = load ptr, ptr %6, align 8
  %17 = ptrtoint ptr %.val13 to i64
  %18 = trunc i64 %17 to i32
  %19 = and i32 %18, 1
  %20 = shl nsw i32 %16, 1
  %21 = or disjoint i32 %19, %20
  %22 = xor i32 %21, 1
  store i32 %22, ptr %3, align 4
  %23 = load ptr, ptr %0, align 8
  %24 = getelementptr inbounds nuw i8, ptr %23, i64 68
  %25 = load i32, ptr %24, align 4
  %.not = icmp eq i32 %25, 0
  br i1 %.not, label %33, label %26

26:                                               ; preds = %2
  %27 = and i64 %17, -2
  %28 = inttoptr i64 %27 to ptr
  %29 = getelementptr inbounds nuw i8, ptr %28, i64 24
  %30 = load i64, ptr %29, align 8
  %31 = and i64 %30, 8
  %.not8 = icmp eq i64 %31, 0
  br i1 %.not8, label %33, label %32

32:                                               ; preds = %26
  store i32 %21, ptr %3, align 4
  br label %33

33:                                               ; preds = %26, %32, %2
  %34 = load ptr, ptr %4, align 8
  %35 = getelementptr inbounds nuw i8, ptr %34, i64 16
  %36 = load ptr, ptr %35, align 8
  %37 = getelementptr inbounds nuw i8, ptr %3, i64 4
  %38 = call i32 @sat_solver_addclause(ptr noundef %36, ptr noundef nonnull %3, ptr noundef nonnull %37) #6
  ret i32 1
}